target datalayout = "e-m:e-p270:32:32-p271:32:32-p272:64:64-i64:64-i128:128-f80:128-n8:16:32:64-S128"
target triple = "x86_64-pc-linux-gnu"

%struct.FmgrInfo = type { ptr, i32, i16, i8, i8, i8, ptr, ptr, ptr }
%struct.IndexOptInfo = type { i32, i32, i32, ptr, i32, double, i32, i32, i32, ptr, ptr, ptr, ptr, ptr, ptr, ptr, ptr, ptr, i32, ptr, ptr, ptr, ptr, i8, i8, i8, i8, i8, i8, i8, i8, i8, i8, i8, i8, i8, ptr }
%struct.GinQualCounts = type { [32 x i8], [32 x i8], double, double, double, double }

@.str.1 = private unnamed_addr constant [11 x i8] c"selfuncs.c\00", align 1
@.str.21 = private unnamed_addr constant [59 x i8] c"missing support function %d for attribute %d of index \22%s\22\00", align 1
@__func__.gincost_pattern = private unnamed_addr constant [16 x i8] c"gincost_pattern\00", align 1

; Function Attrs: inlinehint nounwind uwtable
define internal i64 @UInt16GetDatum(i16 noundef zeroext %0) #1 {
  %2 = alloca i16, align 2
  store i16 %0, ptr %2, align 2
  %3 = load i16, ptr %2, align 2
  %4 = zext i16 %3 to i64
  ret i64 %4
}

; Function Attrs: inlinehint nounwind uwtable
define internal i64 @PointerGetDatum(ptr noundef %0) #1 {
  %2 = alloca ptr, align 8
  store ptr %0, ptr %2, align 8
  %3 = load ptr, ptr %2, align 8
  %4 = ptrtoint ptr %3 to i64
  ret i64 %4
}

; Function Attrs: nounwind uwtable
define internal zeroext i1 @gincost_pattern(ptr noundef %0, i32 noundef %1, i32 noundef %2, i64 noundef %3, ptr noundef %4) #0 {
  %6 = alloca i1, align 1
  %7 = alloca ptr, align 8
  %8 = alloca i32, align 4
  %9 = alloca i32, align 4
  %10 = alloca i64, align 8
  %11 = alloca ptr, align 8
  %12 = alloca %struct.FmgrInfo, align 8
  %13 = alloca i32, align 4
  %14 = alloca i32, align 4
  %15 = alloca i32, align 4
  %16 = alloca i32, align 4
  %17 = alloca i32, align 4
  %18 = alloca i32, align 4
  %19 = alloca ptr, align 8
  %20 = alloca ptr, align 8
  %21 = alloca ptr, align 8
  %22 = alloca i32, align 4
  %23 = alloca i32, align 4
  %24 = alloca i32, align 4
  store ptr %0, ptr %7, align 8
  store i32 %1, ptr %8, align 4
  store i32 %2, ptr %9, align 4
  store i64 %3, ptr %10, align 8
  store ptr %4, ptr %11, align 8
  call void @llvm.lifetime.start.p0(i64 48, ptr %12) #10
  call void @llvm.lifetime.start.p0(i64 4, ptr %13) #10
  call void @llvm.lifetime.start.p0(i64 4, ptr %14) #10
  call void @llvm.lifetime.start.p0(i64 4, ptr %15) #10
  call void @llvm.lifetime.start.p0(i64 4, ptr %16) #10
  call void @llvm.lifetime.start.p0(i64 4, ptr %17) #10
  call void @llvm.lifetime.start.p0(i64 4, ptr %18) #10
  store i32 0, ptr %18, align 4
  call void @llvm.lifetime.start.p0(i64 8, ptr %19) #10
  store ptr null, ptr %19, align 8
  call void @llvm.lifetime.start.p0(i64 8, ptr %20) #10
  store ptr null, ptr %20, align 8
  call void @llvm.lifetime.start.p0(i64 8, ptr %21) #10
  store ptr null, ptr %21, align 8
  call void @llvm.lifetime.start.p0(i64 4, ptr %22) #10
  store i32 0, ptr %22, align 4
  call void @llvm.lifetime.start.p0(i64 4, ptr %23) #10
  %25 = load i32, ptr %9, align 4
  %26 = load ptr, ptr %7, align 8
  %27 = getelementptr inbounds nuw %struct.IndexOptInfo, ptr %26, i32 0, i32 11
  %28 = load ptr, ptr %27, align 8
  %29 = load i32, ptr %8, align 4
  %30 = sext i32 %29 to i64
  %31 = getelementptr inbounds i32, ptr %28, i64 %30
  %32 = load i32, ptr %31, align 4
  call void @get_op_opfamily_properties(i32 noundef %25, i32 noundef %32, i1 noundef zeroext false, ptr noundef %15, ptr noundef %16, ptr noundef %17)
  %33 = load ptr, ptr %7, align 8
  %34 = getelementptr inbounds nuw %struct.IndexOptInfo, ptr %33, i32 0, i32 11
  %35 = load ptr, ptr %34, align 8
  %36 = load i32, ptr %8, align 4
  %37 = sext i32 %36 to i64
  %38 = getelementptr inbounds i32, ptr %35, i64 %37
  %39 = load i32, ptr %38, align 4
  %40 = load ptr, ptr %7, align 8
  %41 = getelementptr inbounds nuw %struct.IndexOptInfo, ptr %40, i32 0, i32 12
  %42 = load ptr, ptr %41, align 8
  %43 = load i32, ptr %8, align 4
  %44 = sext i32 %43 to i64
  %45 = getelementptr inbounds i32, ptr %42, i64 %44
  %46 = load i32, ptr %45, align 4
  %47 = load ptr, ptr %7, align 8
  %48 = getelementptr inbounds nuw %struct.IndexOptInfo, ptr %47, i32 0, i32 12
  %49 = load ptr, ptr %48, align 8
  %50 = load i32, ptr %8, align 4
  %51 = sext i32 %50 to i64
  %52 = getelementptr inbounds i32, ptr %49, i64 %51
  %53 = load i32, ptr %52, align 4
  %54 = call i32 @get_opfamily_proc(i32 noundef %39, i32 noundef %46, i32 noundef %53, i16 noundef signext 3)
  store i32 %54, ptr %13, align 4
  %55 = load i32, ptr %13, align 4
  %56 = icmp ne i32 %55, 0
  br i1 %56, label %74, label %57

57:                                               ; preds = %5
  br label %58

58:                                               ; preds = %57
  br i1 true, label %59, label %61

59:                                               ; preds = %58
  %60 = call zeroext i1 @errstart_cold(i32 noundef 21, ptr noundef null) #11
  br i1 %60, label %63, label %71

61:                                               ; preds = %58
  %62 = call zeroext i1 @errstart(i32 noundef 21, ptr noundef null)
  br i1 %62, label %63, label %71

63:                                               ; preds = %61, %59
  %64 = load i32, ptr %8, align 4
  %65 = add i32 %64, 1
  %66 = load ptr, ptr %7, align 8
  %67 = getelementptr inbounds nuw %struct.IndexOptInfo, ptr %66, i32 0, i32 1
  %68 = load i32, ptr %67, align 4
  %69 = call ptr @get_rel_name(i32 noundef %68)
  %70 = call i32 (ptr, ...) @errmsg_internal(ptr noundef @.str.21, i32 noundef 3, i32 noundef %65, ptr noundef %69)
  call void @errfinish(ptr noundef @.str.1, i32 noundef 7380, ptr noundef @__func__.gincost_pattern)
  br label %71

71:                                               ; preds = %63, %61, %59
  unreachable

72:                                               ; No predecessors!
  br label %73

73:                                               ; preds = %72
  br label %74

74:                                               ; preds = %73, %5
  %75 = load ptr, ptr %7, align 8
  %76 = getelementptr inbounds nuw %struct.IndexOptInfo, ptr %75, i32 0, i32 10
  %77 = load ptr, ptr %76, align 8
  %78 = load i32, ptr %8, align 4
  %79 = sext i32 %78 to i64
  %80 = getelementptr inbounds i32, ptr %77, i64 %79
  %81 = load i32, ptr %80, align 4
  %82 = icmp ne i32 %81, 0
  br i1 %82, label %83, label %91

83:                                               ; preds = %74
  %84 = load ptr, ptr %7, align 8
  %85 = getelementptr inbounds nuw %struct.IndexOptInfo, ptr %84, i32 0, i32 10
  %86 = load ptr, ptr %85, align 8
  %87 = load i32, ptr %8, align 4
  %88 = sext i32 %87 to i64
  %89 = getelementptr inbounds i32, ptr %86, i64 %88
  %90 = load i32, ptr %89, align 4
  store i32 %90, ptr %14, align 4
  br label %92

91:                                               ; preds = %74
  store i32 100, ptr %14, align 4
  br label %92

92:                                               ; preds = %91, %83
  %93 = load i32, ptr %13, align 4
  call void @fmgr_info(i32 noundef %93, ptr noundef %12)
  %94 = load ptr, ptr %7, align 8
  %95 = getelementptr inbounds nuw %struct.IndexOptInfo, ptr %94, i32 0, i32 16
  %96 = load ptr, ptr %95, align 8
  %97 = load i32, ptr %8, align 4
  %98 = sext i32 %97 to i64
  %99 = getelementptr inbounds ptr, ptr %96, i64 %98
  %100 = load ptr, ptr %99, align 8
  call void @set_fn_opclass_options(ptr noundef %12, ptr noundef %100)
  %101 = load i32, ptr %14, align 4
  %102 = load i64, ptr %10, align 8
  %103 = call i64 @PointerGetDatum(ptr noundef %18)
  %104 = load i32, ptr %15, align 4
  %105 = trunc i32 %104 to i16
  %106 = call i64 @UInt16GetDatum(i16 noundef zeroext %105)
  %107 = call i64 @PointerGetDatum(ptr noundef %19)
  %108 = call i64 @PointerGetDatum(ptr noundef %20)
  %109 = call i64 @PointerGetDatum(ptr noundef %21)
  %110 = call i64 @PointerGetDatum(ptr noundef %22)
  %111 = call i64 @FunctionCall7Coll(ptr noundef %12, i32 noundef %101, i64 noundef %102, i64 noundef %103, i64 noundef %106, i64 noundef %107, i64 noundef %108, i64 noundef %109, i64 noundef %110)
  %112 = load i32, ptr %18, align 4
  %113 = icmp sle i32 %112, 0
  br i1 %113, label %114, label %118

114:                                              ; preds = %92
  %115 = load i32, ptr %22, align 4
  %116 = icmp eq i32 %115, 0
  br i1 %116, label %117, label %118

117:                                              ; preds = %114
  store i1 false, ptr %6, align 1
  store i32 1, ptr %24, align 4
  br label %185

118:                                              ; preds = %114, %92
  store i32 0, ptr %23, align 4
  br label %119

119:                                              ; preds = %148, %118
  %120 = load i32, ptr %23, align 4
  %121 = load i32, ptr %18, align 4
  %122 = icmp slt i32 %120, %121
  br i1 %122, label %123, label %151

123:                                              ; preds = %119
  %124 = load ptr, ptr %19, align 8
  %125 = icmp ne ptr %124, null
  br i1 %125, label %126, label %138

126:                                              ; preds = %123
  %127 = load ptr, ptr %19, align 8
  %128 = load i32, ptr %23, align 4
  %129 = sext i32 %128 to i64
  %130 = getelementptr inbounds i8, ptr %127, i64 %129
  %131 = load i8, ptr %130, align 1, !range !4, !noundef !5
  %132 = trunc i8 %131 to i1
  br i1 %132, label %133, label %138

133:                                              ; preds = %126
  %134 = load ptr, ptr %11, align 8
  %135 = getelementptr inbounds nuw %struct.GinQualCounts, ptr %134, i32 0, i32 2
  %136 = load double, ptr %135, align 8
  %137 = fadd double %136, 1.000000e+02
  store double %137, ptr %135, align 8
  br label %143

138:                                              ; preds = %126, %123
  %139 = load ptr, ptr %11, align 8
  %140 = getelementptr inbounds nuw %struct.GinQualCounts, ptr %139, i32 0, i32 3
  %141 = load double, ptr %140, align 8
  %142 = fadd double %141, 1.000000e+00
  store double %142, ptr %140, align 8
  br label %143

143:                                              ; preds = %138, %133
  %144 = load ptr, ptr %11, align 8
  %145 = getelementptr inbounds nuw %struct.GinQualCounts, ptr %144, i32 0, i32 4
  %146 = load double, ptr %145, align 8
  %147 = fadd double %146, 1.000000e+00
  store double %147, ptr %145, align 8
  br label %148

148:                                              ; preds = %143
  %149 = load i32, ptr %23, align 4
  %150 = add i32 %149, 1
  store i32 %150, ptr %23, align 4
  br label %119, !llvm.loop !71

151:                                              ; preds = %119
  %152 = load i32, ptr %22, align 4
  %153 = icmp eq i32 %152, 0
  br i1 %153, label %154, label %160

154:                                              ; preds = %151
  %155 = load ptr, ptr %11, align 8
  %156 = getelementptr inbounds nuw %struct.GinQualCounts, ptr %155, i32 0, i32 1
  %157 = load i32, ptr %8, align 4
  %158 = sext i32 %157 to i64
  %159 = getelementptr inbounds [32 x i8], ptr %156, i64 0, i64 %158
  store i8 1, ptr %159, align 1
  br label %184

160:                                              ; preds = %151
  %161 = load i32, ptr %22, align 4
  %162 = icmp eq i32 %161, 1
  br i1 %162, label %163, label %177

163:                                              ; preds = %160
  %164 = load ptr, ptr %11, align 8
  %165 = getelementptr inbounds nuw %struct.GinQualCounts, ptr %164, i32 0, i32 1
  %166 = load i32, ptr %8, align 4
  %167 = sext i32 %166 to i64
  %168 = getelementptr inbounds [32 x i8], ptr %165, i64 0, i64 %167
  store i8 1, ptr %168, align 1
  %169 = load ptr, ptr %11, align 8
  %170 = getelementptr inbounds nuw %struct.GinQualCounts, ptr %169, i32 0, i32 3
  %171 = load double, ptr %170, align 8
  %172 = fadd double %171, 1.000000e+00
  store double %172, ptr %170, align 8
  %173 = load ptr, ptr %11, align 8
  %174 = getelementptr inbounds nuw %struct.GinQualCounts, ptr %173, i32 0, i32 4
  %175 = load double, ptr %174, align 8
  %176 = fadd double %175, 1.000000e+00
  store double %176, ptr %174, align 8
  br label %183

177:                                              ; preds = %160
  %178 = load ptr, ptr %11, align 8
  %179 = getelementptr inbounds nuw %struct.GinQualCounts, ptr %178, i32 0, i32 0
  %180 = load i32, ptr %8, align 4
  %181 = sext i32 %180 to i64
  %182 = getelementptr inbounds [32 x i8], ptr %179, i64 0, i64 %181
  store i8 1, ptr %182, align 1
  br label %183

183:                                              ; preds = %177, %163
  br label %184

184:                                              ; preds = %183, %154
  store i1 true, ptr %6, align 1
  store i32 1, ptr %24, align 4
  br label %185

185:                                              ; preds = %184, %117
  call void @llvm.lifetime.end.p0(i64 4, ptr %23) #10
  call void @llvm.lifetime.end.p0(i64 4, ptr %22) #10
  call void @llvm.lifetime.end.p0(i64 8, ptr %21) #10
  call void @llvm.lifetime.end.p0(i64 8, ptr %20) #10
  call void @llvm.lifetime.end.p0(i64 8, ptr %19) #10
  call void @llvm.lifetime.end.p0(i64 4, ptr %18) #10
  call void @llvm.lifetime.end.p0(i64 4, ptr %17) #10
  call void @llvm.lifetime.end.p0(i64 4, ptr %16) #10
  call void @llvm.lifetime.end.p0(i64 4, ptr %15) #10
  call void @llvm.lifetime.end.p0(i64 4, ptr %14) #10
  call void @llvm.lifetime.end.p0(i64 4, ptr %13) #10
  call void @llvm.lifetime.end.p0(i64 48, ptr %12) #10
  %186 = load i1, ptr %6, align 1
  ret i1 %186
}