; Function Attrs: nounwind uwtable
define internal fastcc noundef zeroext i1 @gincost_pattern(ptr noundef readonly captures(none) %0, i32 noundef range(i32 -32768, 32768) %1, i32 noundef %2, i64 noundef %3, ptr noundef nonnull captures(none) %4) unnamed_addr #0 {
  %6 = alloca %struct.FmgrInfo, align 8
  %7 = alloca i32, align 4
  %8 = alloca i32, align 4
  %9 = alloca i32, align 4
  %10 = alloca i32, align 4
  %11 = alloca ptr, align 8
  %12 = alloca ptr, align 8
  %13 = alloca ptr, align 8
  %14 = alloca i32, align 4
  call void @llvm.lifetime.start.p0(i64 48, ptr nonnull %6) #12
  call void @llvm.lifetime.start.p0(i64 4, ptr nonnull %7) #12
  call void @llvm.lifetime.start.p0(i64 4, ptr nonnull %8) #12
  call void @llvm.lifetime.start.p0(i64 4, ptr nonnull %9) #12
  call void @llvm.lifetime.start.p0(i64 4, ptr nonnull %10) #12
  store i32 0, ptr %10, align 4
  call void @llvm.lifetime.start.p0(i64 8, ptr nonnull %11) #12
  store ptr null, ptr %11, align 8
  call void @llvm.lifetime.start.p0(i64 8, ptr nonnull %12) #12
  store ptr null, ptr %12, align 8
  call void @llvm.lifetime.start.p0(i64 8, ptr nonnull %13) #12
  store ptr null, ptr %13, align 8
  call void @llvm.lifetime.start.p0(i64 4, ptr nonnull %14) #12
  store i32 0, ptr %14, align 4
  %15 = getelementptr inbounds nuw i8, ptr %0, i64 72
  %16 = load ptr, ptr %15, align 8
  %17 = sext i32 %1 to i64
  %18 = getelementptr inbounds i32, ptr %16, i64 %17
  %19 = load i32, ptr %18, align 4
  call void @get_op_opfamily_properties(i32 noundef %2, i32 noundef %19, i1 noundef zeroext false, ptr noundef nonnull %7, ptr noundef nonnull %8, ptr noundef nonnull %9) #12
  %20 = load ptr, ptr %15, align 8
  %21 = getelementptr inbounds i32, ptr %20, i64 %17
  %22 = load i32, ptr %21, align 4
  %23 = getelementptr inbounds nuw i8, ptr %0, i64 80
  %24 = load ptr, ptr %23, align 8
  %25 = getelementptr inbounds i32, ptr %24, i64 %17
  %26 = load i32, ptr %25, align 4
  %27 = call i32 @get_opfamily_proc(i32 noundef %22, i32 noundef %26, i32 noundef %26, i16 noundef signext 3) #12
  %.not = icmp eq i32 %27, 0
  br i1 %.not, label %28, label %35

28:                                               ; preds = %5
  %29 = call zeroext i1 @errstart_cold(i32 noundef 21, ptr noundef null) #14
  call void @llvm.assume(i1 %29)
  %30 = add nsw i32 %1, 1
  %31 = getelementptr inbounds nuw i8, ptr %0, i64 4
  %32 = load i32, ptr %31, align 4
  %33 = call ptr @get_rel_name(i32 noundef %32) #12
  %34 = call i32 (ptr, ...) @errmsg_internal(ptr noundef nonnull @.str.21, i32 noundef 3, i32 noundef %30, ptr noundef %33) #12
  call void @errfinish(ptr noundef nonnull @.str.1, i32 noundef 7380, ptr noundef nonnull @__func__.gincost_pattern) #12
  unreachable

35:                                               ; preds = %5
  %36 = getelementptr inbounds nuw i8, ptr %0, i64 64
  %37 = load ptr, ptr %36, align 8
  %38 = getelementptr inbounds i32, ptr %37, i64 %17
  %39 = load i32, ptr %38, align 4
  %.not42 = icmp eq i32 %39, 0
  %. = select i1 %.not42, i32 100, i32 %39
  call void @fmgr_info(i32 noundef %27, ptr noundef nonnull %6) #12
  %40 = getelementptr inbounds nuw i8, ptr %0, i64 112
  %41 = load ptr, ptr %40, align 8
  %42 = getelementptr inbounds ptr, ptr %41, i64 %17
  %43 = load ptr, ptr %42, align 8
  call void @set_fn_opclass_options(ptr noundef nonnull %6, ptr noundef %43) #12
  %44 = ptrtoint ptr %10 to i64
  %45 = load i32, ptr %7, align 4
  %46 = and i32 %45, 65535
  %47 = zext nneg i32 %46 to i64
  %48 = ptrtoint ptr %11 to i64
  %49 = ptrtoint ptr %12 to i64
  %50 = ptrtoint ptr %13 to i64
  %51 = ptrtoint ptr %14 to i64
  %52 = call i64 @FunctionCall7Coll(ptr noundef nonnull %6, i32 noundef %., i64 noundef %3, i64 noundef %44, i64 noundef %47, i64 noundef %48, i64 noundef %49, i64 noundef %50, i64 noundef %51) #12
  %53 = load i32, ptr %10, align 4
  %54 = icmp sgt i32 %53, 0
  %55 = load i32, ptr %14, align 4
  %56 = icmp ne i32 %55, 0
  %or.cond.not = select i1 %54, i1 true, i1 %56
  br i1 %or.cond.not, label %.preheader, label %93

.preheader:                                       ; preds = %35
  br i1 %54, label %.lr.ph, label %._crit_edge

.lr.ph:                                           ; preds = %.preheader
  %57 = load ptr, ptr %11, align 8
  %.not43 = icmp eq ptr %57, null
  %58 = getelementptr inbounds nuw i8, ptr %4, i64 64
  %59 = getelementptr inbounds nuw i8, ptr %4, i64 72
  %60 = getelementptr inbounds nuw i8, ptr %4, i64 80
  %.promoted = load double, ptr %60, align 8
  br i1 %.not43, label %.lr.ph.split.us, label %.lr.ph.split.preheader

.lr.ph.split.preheader:                           ; preds = %.lr.ph
  %wide.trip.count = zext nneg i32 %53 to i64
  br label %.lr.ph.split

.lr.ph.split.us:                                  ; preds = %.lr.ph
  %.promoted48 = load double, ptr %59, align 8
  br label %61

61:                                               ; preds = %61, %.lr.ph.split.us
  %62 = phi double [ %.promoted48, %.lr.ph.split.us ], [ %64, %61 ]
  %63 = phi double [ %.promoted, %.lr.ph.split.us ], [ %65, %61 ]
  %.046.us = phi i32 [ 0, %.lr.ph.split.us ], [ %66, %61 ]
  %64 = fadd double %62, 1.000000e+00
  %65 = fadd double %63, 1.000000e+00
  %66 = add nuw nsw i32 %.046.us, 1
  %exitcond52.not = icmp eq i32 %66, %53
  br i1 %exitcond52.not, label %._crit_edge.split.us, label %61, !llvm.loop !50

._crit_edge.split.us:                             ; preds = %61
  store double %64, ptr %59, align 8
  store double %65, ptr %60, align 8
  br label %._crit_edge

.lr.ph.split:                                     ; preds = %.lr.ph.split.preheader, %77
  %indvars.iv = phi i64 [ 0, %.lr.ph.split.preheader ], [ %indvars.iv.next, %77 ]
  %67 = phi double [ %.promoted, %.lr.ph.split.preheader ], [ %78, %77 ]
  %68 = getelementptr inbounds nuw i8, ptr %57, i64 %indvars.iv
  %69 = load i8, ptr %68, align 1, !range !4, !noundef !5
  %70 = trunc nuw i8 %69 to i1
  br i1 %70, label %71, label %74

71:                                               ; preds = %.lr.ph.split
  %72 = load double, ptr %58, align 8
  %73 = fadd double %72, 1.000000e+02
  store double %73, ptr %58, align 8
  br label %77

74:                                               ; preds = %.lr.ph.split
  %75 = load double, ptr %59, align 8
  %76 = fadd double %75, 1.000000e+00
  store double %76, ptr %59, align 8
  br label %77

77:                                               ; preds = %74, %71
  %78 = fadd double %67, 1.000000e+00
  store double %78, ptr %60, align 8
  %indvars.iv.next = add nuw nsw i64 %indvars.iv, 1
  %exitcond.not = icmp eq i64 %indvars.iv.next, %wide.trip.count
  br i1 %exitcond.not, label %._crit_edge, label %.lr.ph.split, !llvm.loop !50

._crit_edge:                                      ; preds = %77, %._crit_edge.split.us, %.preheader
  switch i32 %55, label %91 [
    i32 0, label %79
    i32 1, label %82
  ]

79:                                               ; preds = %._crit_edge
  %80 = getelementptr inbounds nuw i8, ptr %4, i64 32
  %81 = getelementptr inbounds [32 x i8], ptr %80, i64 0, i64 %17
  store i8 1, ptr %81, align 1
  br label %93

82:                                               ; preds = %._crit_edge
  %83 = getelementptr inbounds nuw i8, ptr %4, i64 32
  %84 = getelementptr inbounds [32 x i8], ptr %83, i64 0, i64 %17
  store i8 1, ptr %84, align 1
  %85 = getelementptr inbounds nuw i8, ptr %4, i64 72
  %86 = load double, ptr %85, align 8
  %87 = fadd double %86, 1.000000e+00
  store double %87, ptr %85, align 8
  %88 = getelementptr inbounds nuw i8, ptr %4, i64 80
  %89 = load double, ptr %88, align 8
  %90 = fadd double %89, 1.000000e+00
  store double %90, ptr %88, align 8
  br label %93

91:                                               ; preds = %._crit_edge
  %92 = getelementptr inbounds [32 x i8], ptr %4, i64 0, i64 %17
  store i8 1, ptr %92, align 1
  br label %93

93:                                               ; preds = %79, %91, %82, %35
  call void @llvm.lifetime.end.p0(i64 4, ptr nonnull %14) #12
  call void @llvm.lifetime.end.p0(i64 8, ptr nonnull %13) #12
  call void @llvm.lifetime.end.p0(i64 8, ptr nonnull %12) #12
  call void @llvm.lifetime.end.p0(i64 8, ptr nonnull %11) #12
  call void @llvm.lifetime.end.p0(i64 4, ptr nonnull %10) #12
  call void @llvm.lifetime.end.p0(i64 4, ptr nonnull %9) #12
  call void @llvm.lifetime.end.p0(i64 4, ptr nonnull %8) #12
  call void @llvm.lifetime.end.p0(i64 4, ptr nonnull %7) #12
  call void @llvm.lifetime.end.p0(i64 48, ptr nonnull %6) #12
  ret i1 %or.cond.not
}